target datalayout = "e-m:e-p270:32:32-p271:32:32-p272:64:64-i64:64-i128:128-f80:128-n8:16:32:64-S128"
target triple = "x86_64-unknown-linux-gnu"

%"class.boost::detail::shared_count" = type { ptr }
%"class.boost::shared_ptr.41" = type { ptr, %"class.boost::detail::shared_count" }
%"class.boost::shared_ptr.42" = type { ptr, %"class.boost::detail::shared_count" }
%"class.boost::detail::sp_counted_base" = type { ptr, i32, i32 }

; Function Attrs: inlinehint mustprogress nounwind uwtable
define linkonce_odr void @_ZN5boost6detail16atomic_incrementEPj(ptr noundef %pw) #5 comdat {
entry:
  %pw.addr = alloca ptr, align 8
  %.atomictmp = alloca i32, align 4
  %atomic-temp = alloca i32, align 4
  store ptr %pw, ptr %pw.addr, align 8, !tbaa !3
  %0 = load ptr, ptr %pw.addr, align 8, !tbaa !3
  store i32 1, ptr %.atomictmp, align 4, !tbaa !22
  %1 = load i32, ptr %.atomictmp, align 4
  %2 = atomicrmw add ptr %0, i32 %1 monotonic, align 4
  store i32 %2, ptr %atomic-temp, align 4
  ret void
}

; Function Attrs: mustprogress uwtable
define linkonce_odr void @_ZN5boost6detail15sp_counted_base12add_ref_copyEv(ptr noundef nonnull align 8 dereferenceable(16) %this) #2 comdat align 2 {
entry:
  %this.addr = alloca ptr, align 8
  store ptr %this, ptr %this.addr, align 8, !tbaa !3
  %this1 = load ptr, ptr %this.addr, align 8
  %use_count_ = getelementptr inbounds nuw %"class.boost::detail::sp_counted_base", ptr %this1, i32 0, i32 1
  call void @_ZN5boost6detail16atomic_incrementEPj(ptr noundef %use_count_)
  ret void
}

; Function Attrs: inlinehint mustprogress nounwind uwtable
define linkonce_odr void @_ZN5boost6detail21sp_assert_convertibleIN8QuantLib26BatesDoubleExpDetJumpModelENS2_19BatesDoubleExpModelEEEvv() #5 comdat {
entry:
  ret void
}

; Function Attrs: mustprogress nounwind uwtable
define linkonce_odr void @_ZN5boost6detail12shared_countC2ERKS1_(ptr noundef nonnull align 8 dereferenceable(8) %this, ptr noundef nonnull align 8 dereferenceable(8) %r) unnamed_addr #1 comdat align 2 personality ptr @__gxx_personality_v0 {
entry:
  %this.addr = alloca ptr, align 8
  %r.addr = alloca ptr, align 8
  store ptr %this, ptr %this.addr, align 8, !tbaa !3
  store ptr %r, ptr %r.addr, align 8, !tbaa !3
  %this1 = load ptr, ptr %this.addr, align 8
  %pi_ = getelementptr inbounds nuw %"class.boost::detail::shared_count", ptr %this1, i32 0, i32 0
  %0 = load ptr, ptr %r.addr, align 8, !tbaa !3
  %pi_2 = getelementptr inbounds nuw %"class.boost::detail::shared_count", ptr %0, i32 0, i32 0
  %1 = load ptr, ptr %pi_2, align 8, !tbaa !66
  store ptr %1, ptr %pi_, align 8, !tbaa !66
  %pi_3 = getelementptr inbounds nuw %"class.boost::detail::shared_count", ptr %this1, i32 0, i32 0
  %2 = load ptr, ptr %pi_3, align 8, !tbaa !66
  %cmp = icmp ne ptr %2, null
  br i1 %cmp, label %if.then, label %if.end

if.then:                                          ; preds = %entry
  %pi_4 = getelementptr inbounds nuw %"class.boost::detail::shared_count", ptr %this1, i32 0, i32 0
  %3 = load ptr, ptr %pi_4, align 8, !tbaa !66
  invoke void @_ZN5boost6detail15sp_counted_base12add_ref_copyEv(ptr noundef nonnull align 8 dereferenceable(16) %3)
          to label %invoke.cont unwind label %terminate.lpad

invoke.cont:                                      ; preds = %if.then
  br label %if.end

if.end:                                           ; preds = %invoke.cont, %entry
  ret void

terminate.lpad:                                   ; preds = %if.then
  %4 = landingpad { ptr, i32 }
          catch ptr null
  %5 = extractvalue { ptr, i32 } %4, 0
  call void @__clang_call_terminate(ptr %5) #20
  unreachable
}

; Function Attrs: mustprogress nounwind uwtable
define linkonce_odr void @_ZN5boost10shared_ptrIN8QuantLib19BatesDoubleExpModelEEC2INS1_26BatesDoubleExpDetJumpModelEEERKNS0_IT_EENS_6detail24sp_enable_if_convertibleIS6_S2_E4typeE(ptr noundef nonnull align 8 dereferenceable(16) %this, ptr noundef nonnull align 8 dereferenceable(16) %r) unnamed_addr #1 comdat align 2 {
entry:
  %this.addr = alloca ptr, align 8
  %r.addr = alloca ptr, align 8
  store ptr %this, ptr %this.addr, align 8, !tbaa !3
  store ptr %r, ptr %r.addr, align 8, !tbaa !3
  %this1 = load ptr, ptr %this.addr, align 8
  %px = getelementptr inbounds nuw %"class.boost::shared_ptr.41", ptr %this1, i32 0, i32 0
  %0 = load ptr, ptr %r.addr, align 8, !tbaa !3
  %px2 = getelementptr inbounds nuw %"class.boost::shared_ptr.42", ptr %0, i32 0, i32 0
  %1 = load ptr, ptr %px2, align 8, !tbaa !30
  store ptr %1, ptr %px, align 8, !tbaa !28
  %pn = getelementptr inbounds nuw %"class.boost::shared_ptr.41", ptr %this1, i32 0, i32 1
  %2 = load ptr, ptr %r.addr, align 8, !tbaa !3
  %pn3 = getelementptr inbounds nuw %"class.boost::shared_ptr.42", ptr %2, i32 0, i32 1
  call void @_ZN5boost6detail12shared_countC2ERKS1_(ptr noundef nonnull align 8 dereferenceable(8) %pn, ptr noundef nonnull align 8 dereferenceable(8) %pn3) #13
  call void @_ZN5boost6detail21sp_assert_convertibleIN8QuantLib26BatesDoubleExpDetJumpModelENS2_19BatesDoubleExpModelEEEvv() #13
  ret void
}

; Function Attrs: mustprogress uwtable
define void @_ZN8QuantLib27BatesDoubleExpDetJumpEngineC2ERKN5boost10shared_ptrINS_26BatesDoubleExpDetJumpModelEEEm(ptr noundef nonnull align 8 dereferenceable(400) %this, ptr noundef nonnull align 8 dereferenceable(16) %model, i64 noundef %integrationOrder) unnamed_addr #2 align 2 personality ptr @__gxx_personality_v0 {
entry:
  %this.addr = alloca ptr, align 8
  %model.addr = alloca ptr, align 8
  %integrationOrder.addr = alloca i64, align 8
  %ref.tmp = alloca %"class.boost::shared_ptr.41", align 8
  %exn.slot = alloca ptr, align 8
  %ehselector.slot = alloca i32, align 4
  store ptr %this, ptr %this.addr, align 8, !tbaa !3
  store ptr %model, ptr %model.addr, align 8, !tbaa !3
  store i64 %integrationOrder, ptr %integrationOrder.addr, align 8, !tbaa !14
  %this1 = load ptr, ptr %this.addr, align 8
  call void @llvm.lifetime.start.p0(i64 16, ptr %ref.tmp) #13
  %0 = load ptr, ptr %model.addr, align 8, !tbaa !3
  call void @_ZN5boost10shared_ptrIN8QuantLib19BatesDoubleExpModelEEC2INS1_26BatesDoubleExpDetJumpModelEEERKNS0_IT_EENS_6detail24sp_enable_if_convertibleIS6_S2_E4typeE(ptr noundef nonnull align 8 dereferenceable(16) %ref.tmp, ptr noundef nonnull align 8 dereferenceable(16) %0) #13
  %1 = load i64, ptr %integrationOrder.addr, align 8, !tbaa !14
  invoke void @_ZN8QuantLib20BatesDoubleExpEngineC2ERKN5boost10shared_ptrINS_19BatesDoubleExpModelEEEm(ptr noundef nonnull align 8 dereferenceable(400) %this1, ptr noundef nonnull align 8 dereferenceable(16) %ref.tmp, i64 noundef %1)
          to label %invoke.cont unwind label %lpad

invoke.cont:                                      ; preds = %entry
  call void @_ZN5boost10shared_ptrIN8QuantLib19BatesDoubleExpModelEED2Ev(ptr noundef nonnull align 8 dereferenceable(16) %ref.tmp) #13
  call void @llvm.lifetime.end.p0(i64 16, ptr %ref.tmp) #13
  store ptr getelementptr inbounds inrange(-16, 64) ({ [10 x ptr], [6 x ptr] }, ptr @_ZTVN8QuantLib27BatesDoubleExpDetJumpEngineE, i32 0, i32 0, i32 2), ptr %this1, align 8, !tbaa !12
  %add.ptr = getelementptr inbounds i8, ptr %this1, i64 56
  store ptr getelementptr inbounds inrange(-16, 32) ({ [10 x ptr], [6 x ptr] }, ptr @_ZTVN8QuantLib27BatesDoubleExpDetJumpEngineE, i32 0, i32 1, i32 2), ptr %add.ptr, align 8, !tbaa !12
  ret void

lpad:                                             ; preds = %entry
  %2 = landingpad { ptr, i32 }
          cleanup
  %3 = extractvalue { ptr, i32 } %2, 0
  store ptr %3, ptr %exn.slot, align 8
  %4 = extractvalue { ptr, i32 } %2, 1
  store i32 %4, ptr %ehselector.slot, align 4
  call void @_ZN5boost10shared_ptrIN8QuantLib19BatesDoubleExpModelEED2Ev(ptr noundef nonnull align 8 dereferenceable(16) %ref.tmp) #13
  call void @llvm.lifetime.end.p0(i64 16, ptr %ref.tmp) #13
  br label %eh.resume

eh.resume:                                        ; preds = %lpad
  %exn = load ptr, ptr %exn.slot, align 8
  %sel = load i32, ptr %ehselector.slot, align 4
  %lpad.val = insertvalue { ptr, i32 } poison, ptr %exn, 0
  %lpad.val2 = insertvalue { ptr, i32 } %lpad.val, i32 %sel, 1
  resume { ptr, i32 } %lpad.val2
}